(isio
MapInfo
p1
(dp2
S'mapInfo'
p3
(lp4
(lp5
(ibasic
Map_Basic
p6
(dp7
S'move_consumption'
p8
I1
sS'score'
p9
I0
sS'type'
p10
I0
sba(ibasic
Map_Basic
p11
(dp12
g8
I1
sg9
I0
sg10
I0
sba(ibasic
Map_Basic
p13
(dp14
g8
I1
sg9
I0
sg10
I0
sba(ibasic
Map_Basic
p15
(dp16
g8
I1
sg9
I0
sg10
I0
sba(ibasic
Map_Basic
p17
(dp18
g8
I1
sg9
I0
sg10
I0
sbaa(lp19
(ibasic
Map_Basic
p20
(dp21
g8
I1
sg9
I0
sg10
I0
sba(ibasic
Map_Gear
p22
(dp23
S'on'
p24
I00
sS'barrier'
p25
(lp26
sg8
I1
sg9
I2
sS'trap'
p27
(lp28
(I4
I4
tp29
a(I4
I3
tp30
a(I3
I4
tp31
a(I3
I3
tp32
asg10
I7
sba(ibasic
Map_Basic
p33
(dp34
g8
I1
sg9
I0
sg10
I0
sba(ibasic
Map_Basic
p35
(dp36
g8
I1
sg9
I0
sg10
I0
sba(ibasic
Map_Basic
p37
(dp38
g8
I1
sg9
I0
sg10
I0
sbaa(lp39
(ibasic
Map_Basic
p40
(dp41
g8
I1
sg9
I0
sg10
I0
sba(ibasic
Map_Basic
p42
(dp43
g8
I1
sg9
I0
sg10
I0
sba(ibasic
Map_Basic
p44
(dp45
g8
I1
sg9
I0
sg10
I0
sba(ibasic
Map_Basic
p46
(dp47
g8
I1
sg9
I0
sg10
I0
sba(ibasic
Map_Basic
p48
(dp49
g8
I1
sg9
I0
sg10
I0
sbaa(lp50
(ibasic
Map_Basic
p51
(dp52
g8
I1
sg9
I0
sg10
I0
sba(ibasic
Map_Basic
p53
(dp54
g8
I1
sg9
I0
sg10
I0
sba(ibasic
Map_Basic
p55
(dp56
g8
I1
sg9
I0
sg10
I0
sba(ibasic
Map_Basic
p57
(dp58
g8
I1
sg9
I0
sg10
I0
sba(ibasic
Map_Basic
p59
(dp60
g8
I1
sg9
I0
sg10
I0
sbaa(lp61
(ibasic
Map_Basic
p62
(dp63
g8
I1
sg9
I0
sg10
I0
sba(ibasic
Map_Basic
p64
(dp65
g8
I1
sg9
I0
sg10
I0
sba(ibasic
Map_Basic
p66
(dp67
g8
I1
sg9
I0
sg10
I0
sba(ibasic
Map_Basic
p68
(dp69
g8
I1
sg9
I0
sg10
I0
sba(ibasic
Map_Basic
p70
(dp71
g8
I1
sg9
I0
sg10
I0
sbaasb.